(lp1
I303052633483120640
aI299605267421736960
aI296471072151326720
aI296437681649496064
aI296107050814021632
aI296049560957120512
aI296039033442811905
aI296035119972626432
aI296029477467729920
aI303776267180859392
aI303782263190077440
aI303960020700237825
aI304033520936964096
aI304034079609876480
aI304036205052452867
aI304037046106877954
aI304356366364053506
aI304356034716250112
aI304355561422598147
aI304374061235048449
aI308368786736680960
aI307710127685910528
aI308371636661395456
aI308404591416975361
aI308413219666550785
aI308422753881559040
aI308420100627763201
aI308431477450891265
aI308431385901821954
aI309092202389319680
aI309070026374279168
aI309065583750684673
aI309797937788100610
aI309814279744401410
aI309827274880999426
aI310230933347393538
aI310271931154825216
aI310458152552370176
aI310457928534618114
aI310470675221594112
aI310470414205865985
aI310469877917962240
aI310477398137245696
aI310477197540474881
aI310477074399911936
aI310678678738722817
aI310841891543474178
aI310877037567045634
aI310917286200500224
aI310976942943903744
aI311302752485654530
aI311303577459101697
aI311303424610283521
aI311303336664117249
aI311533758127960064
aI311537500701204480
aI311553401118937089
aI311613257825787905
aI311927877388083200
aI311962564995207169
aI312028587479932930
aI312208523780059137
aI312427034552975360
aI312594930478501889
aI314103174443200512
aI314237692659507200
aI314601221132517376
aI314602943250825217
aI314905613480099840
aI315131193320423424
aI315138767004516352
aI315138624498851840
aI315325893897752576
aI315551463436857346
aI315645441314258946
aI315652051881324547
aI316050455262285824
aI316376916808589312
aI316720130660892672
aI316894874836287488
aI317017211048972291
aI317161087256645632
aI317364611080916993
aI318451835184750592
aI318587063404466177
aI318589769745592320
aI318597159593324545
aI319312181189566464
aI319975653590069248
aI320060333580484608
aI320060244107591680
aI320227143969808384
aI320238012984344576
aI320251156653826048
aI320268380563185664
aI320272943018033153
aI320366642842464256
aI320366405885251584
aI320401752828555267
aI320764494089445376
aI320771622879506432
aI321002533390778368
aI322074240155262977
aI322407395651366913
aI322462761370152960
aI322593093557829632
aI322708611803525120
aI322767941332508672
aI322766254983233536
aI323191675545604096
aI323186929422196738
aI323556126132146177
aI323556842020151296
aI323565846918205441
aI323572610313113601
aI323585305854750720
aI324249881361399808
aI324262511941648384
aI324612405642526720
aI324726671901089793
aI325081278049312771
aI325197735777140737
aI325353920639684608
aI326136064832065536
aI326546347140476928
aI327048958385983490
aI327048778383228930
aI327048648842149888
aI327048364581609474
aI327048099807768577
aI327047802486157315
aI327047456284082177
aI327047279913611265
aI327047153488904192
aI327047037591896067
aI327046909099393024
aI327046809123950592
aI327046722092167169
aI327046591397650433
aI327046456588529664
aI327046341857538049
aI327091490356596736
aI327091369904586754
aI327102795511635968
aI327118884626907137
a.